; ModuleID = '38/17.c'
source_filename = "38/17.c"
target datalayout = "e-m:e-p270:32:32-p271:32:32-p272:64:64-i64:64-f80:128-n8:16:32:64-S128"
target triple = "x86_64-pc-linux-gnu"

@.str = private unnamed_addr constant [3 x i8] c"%d\00", align 1
@.str.1 = private unnamed_addr constant [4 x i8] c"%lf\00", align 1
@.str.2 = private unnamed_addr constant [6 x i8] c"%.5f\0A\00", align 1

; Function Attrs: noinline nounwind uwtable
define dso_local i32 @main() #0 {
  %1 = alloca i32, align 4
  %2 = alloca double, align 8
  %3 = alloca double, align 8
  %4 = alloca double, align 8
  %5 = alloca i32, align 4
  %6 = alloca i32, align 4
  %7 = alloca i32, align 4
  store i32 0, i32* %1, align 4
  %8 = call i32 (i8*, ...) @__isoc99_scanf(i8* getelementptr inbounds ([3 x i8], [3 x i8]* @.str, i64 0, i64 0), i32* %6)
  br label %9

9:                                                ; preds = %45, %0
  %10 = load i32, i32* %6, align 4
  %11 = icmp sgt i32 %10, 0
  br i1 %11, label %12, label %48

12:                                               ; preds = %9
  %13 = call i32 (i8*, ...) @__isoc99_scanf(i8* getelementptr inbounds ([3 x i8], [3 x i8]* @.str, i64 0, i64 0), i32* %5)
  store double 0.000000e+00, double* %3, align 8
  store double 0.000000e+00, double* %2, align 8
  store i32 0, i32* %7, align 4
  br label %14

14:                                               ; preds = %28, %12
  %15 = load i32, i32* %7, align 4
  %16 = load i32, i32* %5, align 4
  %17 = icmp slt i32 %15, %16
  br i1 %17, label %18, label %31

18:                                               ; preds = %14
  %19 = call i32 (i8*, ...) @__isoc99_scanf(i8* getelementptr inbounds ([4 x i8], [4 x i8]* @.str.1, i64 0, i64 0), double* %4)
  %20 = load double, double* %4, align 8
  %21 = load double, double* %2, align 8
  %22 = fadd double %21, %20
  store double %22, double* %2, align 8
  %23 = load double, double* %4, align 8
  %24 = load double, double* %4, align 8
  %25 = fmul double %23, %24
  %26 = load double, double* %3, align 8
  %27 = fadd double %26, %25
  store double %27, double* %3, align 8
  br label %28

28:                                               ; preds = %18
  %29 = load i32, i32* %7, align 4
  %30 = add nsw i32 %29, 1
  store i32 %30, i32* %7, align 4
  br label %14

31:                                               ; preds = %14
  %32 = load double, double* %3, align 8
  %33 = load double, double* %2, align 8
  %34 = load double, double* %2, align 8
  %35 = fmul double %33, %34
  %36 = load i32, i32* %5, align 4
  %37 = sitofp i32 %36 to double
  %38 = fdiv double %35, %37
  %39 = fsub double %32, %38
  %40 = load i32, i32* %5, align 4
  %41 = sitofp i32 %40 to double
  %42 = fdiv double %39, %41
  %43 = call double @sqrt(double %42) #3
  %44 = call i32 (i8*, ...) @printf(i8* getelementptr inbounds ([6 x i8], [6 x i8]* @.str.2, i64 0, i64 0), double %43)
  br label %45

45:                                               ; preds = %31
  %46 = load i32, i32* %6, align 4
  %47 = add nsw i32 %46, -1
  store i32 %47, i32* %6, align 4
  br label %9

48:                                               ; preds = %9
  ret i32 0
}

declare dso_local i32 @__isoc99_scanf(i8*, ...) #1

declare dso_local i32 @printf(i8*, ...) #1

; Function Attrs: nounwind
declare dso_local double @sqrt(double) #2


!llvm.module.flags = !{!0}
!llvm.ident = !{!1}

!0 = !{i32 1, !"wchar_size", i32 4}
!1 = !{!"clang version 10.0.0-4ubuntu1 "}
